; Function Attrs: mustprogress uwtable
define noundef nonnull ptr @_ZN5arrow7compute8internal21GetDefaultTakeOptionsEv() local_unnamed_addr #1 personality ptr @__gxx_personality_v0 {
  %1 = load atomic i8, ptr @_ZGVZN5arrow7compute8internal21GetDefaultTakeOptionsEvE19kDefaultTakeOptions acquire, align 8
  %2 = icmp eq i8 %1, 0
  br i1 %2, label %3, label %6, !prof !893

3:                                                ; preds = %0
  %4 = tail call i32 @__cxa_guard_acquire(ptr nonnull @_ZGVZN5arrow7compute8internal21GetDefaultTakeOptionsEvE19kDefaultTakeOptions) #24
  %.not = icmp eq i32 %4, 0
  br i1 %.not, label %6, label %5

5:                                                ; preds = %3
  invoke void @_ZN5arrow7compute11TakeOptionsC1Eb(ptr noundef nonnull align 8 dereferenceable(17) @_ZZN5arrow7compute8internal21GetDefaultTakeOptionsEvE19kDefaultTakeOptions, i1 noundef zeroext true)
          to label %_ZN5arrow7compute11TakeOptions8DefaultsEv.exit unwind label %7

_ZN5arrow7compute11TakeOptions8DefaultsEv.exit:   ; preds = %5
  tail call void @__cxa_guard_release(ptr nonnull @_ZGVZN5arrow7compute8internal21GetDefaultTakeOptionsEvE19kDefaultTakeOptions) #24
  br label %6

6:                                                ; preds = %_ZN5arrow7compute11TakeOptions8DefaultsEv.exit, %3, %0
  ret ptr @_ZZN5arrow7compute8internal21GetDefaultTakeOptionsEvE19kDefaultTakeOptions

7:                                                ; preds = %5
  %8 = landingpad { ptr, i32 }
          cleanup
  tail call void @__cxa_guard_abort(ptr nonnull @_ZGVZN5arrow7compute8internal21GetDefaultTakeOptionsEvE19kDefaultTakeOptions) #24
  resume { ptr, i32 } %8
}